target datalayout = "e-m:e-p270:32:32-p271:32:32-p272:64:64-i64:64-i128:128-f80:128-n8:16:32:64-S128"
target triple = "x86_64-pc-linux-gnu"

%struct._GByteArray = type { ptr, i32 }

@thread_seq_ctr_str = internal global ptr null, align 8
@thread_seq_ctr_acqd = internal global i8 0, align 1
@thread_seq_ctr_bytes = internal global [4 x i8] zeroinitializer, align 1

; Function Attrs: alwaysinline nounwind
define internal ptr @memset.inline(ptr %0, i32 %1, i64 %2) #4 {
  %4 = alloca ptr, align 8
  %5 = alloca i32, align 4
  %6 = alloca i64, align 8
  store ptr %0, ptr %4, align 8
  store i32 %1, ptr %5, align 4
  store i64 %2, ptr %6, align 8
  %7 = load ptr, ptr %4, align 8
  %8 = load i32, ptr %5, align 4
  %9 = load i64, ptr %6, align 8
  %10 = load ptr, ptr %4, align 8
  %11 = call i64 @llvm.objectsize.i64.p0(ptr %10, i1 false, i1 true, i1 true)
  %12 = call ptr @__memset_chk(ptr noundef %7, i32 noundef %8, i64 noundef %9, i64 noundef %11) #9
  ret ptr %12
}

; Function Attrs: alwaysinline nounwind
define internal ptr @memcpy.inline(ptr noalias %0, ptr noalias %1, i64 %2) #4 {
  %4 = alloca ptr, align 8
  %5 = alloca ptr, align 8
  %6 = alloca i64, align 8
  store ptr %0, ptr %4, align 8
  store ptr %1, ptr %5, align 8
  store i64 %2, ptr %6, align 8
  %7 = load ptr, ptr %4, align 8
  %8 = load ptr, ptr %5, align 8
  %9 = load i64, ptr %6, align 8
  %10 = load ptr, ptr %4, align 8
  %11 = call i64 @llvm.objectsize.i64.p0(ptr %10, i1 false, i1 true, i1 true)
  %12 = call ptr @__memcpy_chk(ptr noundef %7, ptr noundef %8, i64 noundef %9, i64 noundef %11) #9
  ret ptr %12
}

; Function Attrs: null_pointer_is_valid sspstrong uwtable
define internal ptr @set_thread_seq_ctr_from_key_index(i8 noundef zeroext %0) #0 {
  %2 = alloca i8, align 1
  %3 = alloca ptr, align 8
  store i8 %0, ptr %2, align 1
  call void @llvm.lifetime.start.p0(i64 8, ptr %3) #9
  store ptr null, ptr %3, align 8
  %4 = call ptr @g_byte_array_new()
  store ptr %4, ptr %3, align 8
  %5 = load i8, ptr @thread_seq_ctr_acqd, align 1, !range !21, !noundef !22
  %6 = trunc i8 %5 to i1
  br i1 %6, label %7, label %14

7:                                                ; preds = %1
  %8 = load ptr, ptr %3, align 8
  %9 = call ptr @g_byte_array_set_size(ptr noundef %8, i32 noundef 4)
  store ptr %9, ptr %3, align 8
  %10 = load ptr, ptr %3, align 8
  %11 = getelementptr inbounds nuw %struct._GByteArray, ptr %10, i32 0, i32 0
  %12 = load ptr, ptr %11, align 8
  %13 = call ptr @memcpy.inline(ptr noundef %12, ptr noundef @thread_seq_ctr_bytes, i64 noundef 4) #9
  br label %30

14:                                               ; preds = %1
  %15 = load ptr, ptr @thread_seq_ctr_str, align 8
  %16 = load ptr, ptr %3, align 8
  %17 = call zeroext i1 @hex_str_to_bytes(ptr noundef %15, ptr noundef %16, i1 noundef zeroext false)
  %18 = load ptr, ptr %3, align 8
  %19 = getelementptr inbounds nuw %struct._GByteArray, ptr %18, i32 0, i32 1
  %20 = load i32, ptr %19, align 8
  %21 = icmp ne i32 %20, 4
  br i1 %21, label %22, label %29

22:                                               ; preds = %14
  %23 = load ptr, ptr %3, align 8
  %24 = call ptr @g_byte_array_set_size(ptr noundef %23, i32 noundef 4)
  store ptr %24, ptr %3, align 8
  %25 = load ptr, ptr %3, align 8
  %26 = getelementptr inbounds nuw %struct._GByteArray, ptr %25, i32 0, i32 0
  %27 = load ptr, ptr %26, align 8
  %28 = call ptr @memset.inline(ptr noundef %27, i32 noundef 0, i64 noundef 4) #9
  br label %29

29:                                               ; preds = %22, %14
  br label %30

30:                                               ; preds = %29, %7
  %31 = load ptr, ptr %3, align 8
  %32 = getelementptr inbounds nuw %struct._GByteArray, ptr %31, i32 0, i32 0
  %33 = load ptr, ptr %32, align 8
  %34 = getelementptr i8, ptr %33, i64 3
  %35 = load i8, ptr %34, align 1
  %36 = zext i8 %35 to i32
  %37 = and i32 %36, 128
  %38 = load i8, ptr %2, align 1
  %39 = zext i8 %38 to i32
  %40 = sub i32 %39, 1
  %41 = and i32 %40, 127
  %42 = add i32 %37, %41
  %43 = trunc i32 %42 to i8
  %44 = load ptr, ptr %3, align 8
  %45 = getelementptr inbounds nuw %struct._GByteArray, ptr %44, i32 0, i32 0
  %46 = load ptr, ptr %45, align 8
  %47 = getelementptr i8, ptr %46, i64 3
  store i8 %43, ptr %47, align 1
  %48 = load ptr, ptr %3, align 8
  call void @llvm.lifetime.end.p0(i64 8, ptr %3) #9
  ret ptr %48
}