; Function Attrs: null_pointer_is_valid sspstrong uwtable
define internal fastcc noundef ptr @set_thread_seq_ctr_from_key_index(i8 noundef zeroext %0) unnamed_addr #0 {
  %2 = tail call ptr @g_byte_array_new()
  %.b9 = load i1, ptr @thread_seq_ctr_acqd, align 1
  br i1 %.b9, label %3, label %7

3:                                                ; preds = %1
  %4 = tail call ptr @g_byte_array_set_size(ptr noundef %2, i32 noundef 4)
  %5 = load ptr, ptr %4, align 8
  %6 = load i32, ptr @thread_seq_ctr_bytes, align 4
  store i32 %6, ptr %5, align 1
  br label %15

7:                                                ; preds = %1
  %8 = load ptr, ptr @thread_seq_ctr_str, align 8
  %9 = tail call zeroext i1 @hex_str_to_bytes(ptr noundef %8, ptr noundef %2, i1 noundef zeroext false)
  %10 = getelementptr inbounds nuw i8, ptr %2, i64 8
  %11 = load i32, ptr %10, align 8
  %.not = icmp eq i32 %11, 4
  br i1 %.not, label %15, label %12

12:                                               ; preds = %7
  %13 = tail call ptr @g_byte_array_set_size(ptr noundef %2, i32 noundef 4)
  %14 = load ptr, ptr %13, align 8
  store i32 0, ptr %14, align 1
  br label %15

15:                                               ; preds = %7, %12, %3
  %.0 = phi ptr [ %4, %3 ], [ %13, %12 ], [ %2, %7 ]
  %16 = load ptr, ptr %.0, align 8
  %17 = getelementptr i8, ptr %16, i64 3
  %18 = load i8, ptr %17, align 1
  %19 = and i8 %18, -128
  %20 = add i8 %0, 127
  %21 = and i8 %20, 127
  %22 = or disjoint i8 %19, %21
  store i8 %22, ptr %17, align 1
  ret ptr %.0
}